target datalayout = "e-m:e-p270:32:32-p271:32:32-p272:64:64-i64:64-i128:128-f80:128-n8:16:32:64-S128"
target triple = "x86_64-unknown-linux-gnu"

%"class.rocksdb::Slice" = type { ptr, i64 }
%"class.rocksdb::BlockHandle" = type { i64, i64 }
%"class.rocksdb::Status" = type { i8, i8, i8, i8, i8, i8, %"class.std::unique_ptr" }
%"class.std::unique_ptr" = type { %"struct.std::__uniq_ptr_data" }
%"struct.std::__uniq_ptr_data" = type { %"class.std::__uniq_ptr_impl" }
%"class.std::__uniq_ptr_impl" = type { %"class.std::tuple" }
%"class.std::tuple" = type { %"struct.std::_Tuple_impl" }
%"struct.std::_Tuple_impl" = type { %"struct.std::_Head_base.13" }
%"struct.std::_Head_base.13" = type { ptr }
%"class.std::_Function_base" = type { %"union.std::_Any_data", ptr }
%"union.std::_Any_data" = type { %"union.std::_Nocopy_types" }
%"union.std::_Nocopy_types" = type { { i64, i64 } }
%"class.std::chrono::duration" = type { i64 }
%"class.rocksdb::BlockBasedTable" = type { %"class.rocksdb::TableReader", ptr, ptr }
%"class.rocksdb::TableReader" = type { ptr }
%"struct.rocksdb::BlockBasedTable::Rep" = type { ptr, ptr, %"struct.rocksdb::BlockBasedTableOptions", ptr, ptr, %"class.rocksdb::Status", %"class.std::unique_ptr.14", %"class.rocksdb::OffsetableCacheKey", %"struct.rocksdb::PersistentCacheOptions", %"class.rocksdb::Footer", %"class.std::unique_ptr.22", %"class.std::unique_ptr.30", %"class.std::unique_ptr.38", i32, %"class.rocksdb::BlockHandle", %"class.rocksdb::BlockHandle", %"class.std::shared_ptr.46", %"class.rocksdb::BlockHandle", i8, i8, i8, %"class.std::shared_ptr.49", %"class.std::shared_ptr.52", %"struct.rocksdb::BlockCreateContext", i64, i64, i32, %"class.rocksdb::Slice", %"class.rocksdb::Slice", i8, i8, i8, i8, i8, i8, i8, %"class.std::unique_ptr.55" }
%"struct.rocksdb::BlockBasedTableOptions" = type { %"class.std::shared_ptr", i8, i8, i8, i8, %"struct.rocksdb::MetadataCacheOptions", i8, i8, double, i8, i8, %"class.std::shared_ptr.0", %"class.std::shared_ptr.3", i64, i32, i32, i32, i64, %"struct.rocksdb::CacheUsageOptions", i8, i8, i8, %"class.std::shared_ptr.9", i8, i8, i8, i32, i32, i8, i8, i8, i64, i8, i64, i64 }
%"class.std::shared_ptr" = type { %"class.std::__shared_ptr" }
%"class.std::__shared_ptr" = type { ptr, %"class.std::__shared_count" }
%"class.std::__shared_count" = type { ptr }
%"struct.rocksdb::MetadataCacheOptions" = type { i32, i32, i32 }
%"class.std::shared_ptr.0" = type { %"class.std::__shared_ptr.1" }
%"class.std::__shared_ptr.1" = type { ptr, %"class.std::__shared_count" }
%"class.std::shared_ptr.3" = type { %"class.std::__shared_ptr.4" }
%"class.std::__shared_ptr.4" = type { ptr, %"class.std::__shared_count" }
%"struct.rocksdb::CacheUsageOptions" = type { %"struct.rocksdb::CacheEntryRoleOptions", %"class.std::map" }
%"struct.rocksdb::CacheEntryRoleOptions" = type { i32 }
%"class.std::map" = type { %"class.std::_Rb_tree" }
%"class.std::_Rb_tree" = type { %"struct.std::_Rb_tree<rocksdb::CacheEntryRole, std::pair<const rocksdb::CacheEntryRole, rocksdb::CacheEntryRoleOptions>, std::_Select1st<std::pair<const rocksdb::CacheEntryRole, rocksdb::CacheEntryRoleOptions>>, std::less<rocksdb::CacheEntryRole>>::_Rb_tree_impl" }
%"struct.std::_Rb_tree<rocksdb::CacheEntryRole, std::pair<const rocksdb::CacheEntryRole, rocksdb::CacheEntryRoleOptions>, std::_Select1st<std::pair<const rocksdb::CacheEntryRole, rocksdb::CacheEntryRoleOptions>>, std::less<rocksdb::CacheEntryRole>>::_Rb_tree_impl" = type { %"struct.std::_Rb_tree_key_compare", %"struct.std::_Rb_tree_header" }
%"struct.std::_Rb_tree_key_compare" = type { %"struct.std::less" }
%"struct.std::less" = type { i8 }
%"struct.std::_Rb_tree_header" = type { %"struct.std::_Rb_tree_node_base", i64 }
%"struct.std::_Rb_tree_node_base" = type { i32, ptr, ptr, ptr }
%"class.std::shared_ptr.9" = type { %"class.std::__shared_ptr.10" }
%"class.std::__shared_ptr.10" = type { ptr, %"class.std::__shared_count" }
%"class.std::unique_ptr.14" = type { %"struct.std::__uniq_ptr_data.15" }
%"struct.std::__uniq_ptr_data.15" = type { %"class.std::__uniq_ptr_impl.16" }
%"class.std::__uniq_ptr_impl.16" = type { %"class.std::tuple.17" }
%"class.std::tuple.17" = type { %"struct.std::_Tuple_impl.18" }
%"struct.std::_Tuple_impl.18" = type { %"struct.std::_Head_base.21" }
%"struct.std::_Head_base.21" = type { ptr }
%"class.rocksdb::OffsetableCacheKey" = type { %"class.rocksdb::CacheKey" }
%"class.rocksdb::CacheKey" = type { i64, i64 }
%"struct.rocksdb::PersistentCacheOptions" = type { %"class.std::shared_ptr.3", %"class.rocksdb::OffsetableCacheKey", ptr }
%"class.rocksdb::Footer" = type <{ i64, i32, i32, %"class.rocksdb::BlockHandle", %"class.rocksdb::BlockHandle", i32, i8, [3 x i8] }>
%"class.std::unique_ptr.22" = type { %"struct.std::__uniq_ptr_data.23" }
%"struct.std::__uniq_ptr_data.23" = type { %"class.std::__uniq_ptr_impl.24" }
%"class.std::__uniq_ptr_impl.24" = type { %"class.std::tuple.25" }
%"class.std::tuple.25" = type { %"struct.std::_Tuple_impl.26" }
%"struct.std::_Tuple_impl.26" = type { %"struct.std::_Head_base.29" }
%"struct.std::_Head_base.29" = type { ptr }
%"class.std::unique_ptr.30" = type { %"struct.std::__uniq_ptr_data.31" }
%"struct.std::__uniq_ptr_data.31" = type { %"class.std::__uniq_ptr_impl.32" }
%"class.std::__uniq_ptr_impl.32" = type { %"class.std::tuple.33" }
%"class.std::tuple.33" = type { %"struct.std::_Tuple_impl.34" }
%"struct.std::_Tuple_impl.34" = type { %"struct.std::_Head_base.37" }
%"struct.std::_Head_base.37" = type { ptr }
%"class.std::unique_ptr.38" = type { %"struct.std::__uniq_ptr_data.39" }
%"struct.std::__uniq_ptr_data.39" = type { %"class.std::__uniq_ptr_impl.40" }
%"class.std::__uniq_ptr_impl.40" = type { %"class.std::tuple.41" }
%"class.std::tuple.41" = type { %"struct.std::_Tuple_impl.42" }
%"struct.std::_Tuple_impl.42" = type { %"struct.std::_Head_base.45" }
%"struct.std::_Head_base.45" = type { ptr }
%"class.std::shared_ptr.46" = type { %"class.std::__shared_ptr.47" }
%"class.std::__shared_ptr.47" = type { ptr, %"class.std::__shared_count" }
%"class.std::shared_ptr.49" = type { %"class.std::__shared_ptr.50" }
%"class.std::__shared_ptr.50" = type { ptr, %"class.std::__shared_count" }
%"class.std::shared_ptr.52" = type { %"class.std::__shared_ptr.53" }
%"class.std::__shared_ptr.53" = type { ptr, %"class.std::__shared_count" }
%"struct.rocksdb::BlockCreateContext" = type { ptr, ptr, ptr, ptr, ptr, i32, i8, i8, i8, i8 }
%"class.std::unique_ptr.55" = type { %"struct.std::__uniq_ptr_data.56" }
%"struct.std::__uniq_ptr_data.56" = type { %"class.std::__uniq_ptr_impl.57" }
%"class.std::__uniq_ptr_impl.57" = type { %"class.std::tuple.58" }
%"class.std::tuple.58" = type { %"struct.std::_Tuple_impl.59" }
%"struct.std::_Tuple_impl.59" = type { %"struct.std::_Head_base.62" }
%"struct.std::_Head_base.62" = type { ptr }
%"struct.rocksdb::ReadOptions" = type <{ ptr, ptr, ptr, %"class.std::chrono::duration", %"class.std::chrono::duration", i32, i32, i64, %"class.std::optional", i8, i8, i8, i8, i8, [3 x i8], i64, i64, ptr, ptr, i8, i8, i8, i8, i8, i8, i8, i8, %"class.std::function", i8, i8, [6 x i8] }>
%"class.std::optional" = type { %"struct.std::_Optional_base" }
%"struct.std::_Optional_base" = type { %"struct.std::_Optional_payload" }
%"struct.std::_Optional_payload" = type { %"struct.std::_Optional_payload_base.base", [7 x i8] }
%"struct.std::_Optional_payload_base.base" = type <{ %"union.std::_Optional_payload_base<unsigned long>::_Storage", i8 }>
%"union.std::_Optional_payload_base<unsigned long>::_Storage" = type { i64 }
%"class.std::function" = type { %"class.std::_Function_base", ptr }

; Function Attrs: mustprogress nounwind uwtable
define linkonce_odr noundef zeroext i1 @_ZNKSt12__shared_ptrIN7rocksdb28FragmentedRangeTombstoneListELN9__gnu_cxx12_Lock_policyE2EEcvbEv(ptr noundef nonnull align 8 dereferenceable(16) %this) #1 comdat align 2 {
entry:
  %this.addr = alloca ptr, align 8
  store ptr %this, ptr %this.addr, align 8
  %this1 = load ptr, ptr %this.addr, align 8
  %_M_ptr = getelementptr inbounds %"class.std::__shared_ptr.53", ptr %this1, i32 0, i32 0
  %0 = load ptr, ptr %_M_ptr, align 8
  %cmp = icmp ne ptr %0, null
  ret i1 %cmp
}

; Function Attrs: mustprogress nounwind uwtable
define linkonce_odr noundef zeroext i1 @_ZSteqIN7rocksdb28FragmentedRangeTombstoneListEEbRKSt10shared_ptrIT_EDn(ptr noundef nonnull align 8 dereferenceable(16) %__a, ptr %0) #1 comdat {
entry:
  %__a.addr = alloca ptr, align 8
  %.addr = alloca ptr, align 8
  store ptr %__a, ptr %__a.addr, align 8
  store ptr %0, ptr %.addr, align 8
  %1 = load ptr, ptr %__a.addr, align 8
  %call = call noundef zeroext i1 @_ZNKSt12__shared_ptrIN7rocksdb28FragmentedRangeTombstoneListELN9__gnu_cxx12_Lock_policyE2EEcvbEv(ptr noundef nonnull align 8 dereferenceable(16) %1) #3
  %lnot = xor i1 %call, true
  ret i1 %lnot
}

; Function Attrs: mustprogress uwtable
define noundef ptr @_ZN7rocksdb15BlockBasedTable25NewRangeTombstoneIteratorERKNS_11ReadOptionsE(ptr noundef nonnull align 8 dereferenceable(24) %this, ptr noundef nonnull align 8 dereferenceable(154) %read_options) unnamed_addr #0 align 2 personality ptr @__gxx_personality_v0 {
entry:
  %retval = alloca ptr, align 8
  %this.addr = alloca ptr, align 8
  %read_options.addr = alloca ptr, align 8
  %snapshot = alloca i64, align 8
  %exn.slot = alloca ptr, align 8
  %ehselector.slot = alloca i32, align 4
  store ptr %this, ptr %this.addr, align 8
  store ptr %read_options, ptr %read_options.addr, align 8
  %this1 = load ptr, ptr %this.addr, align 8
  %rep_ = getelementptr inbounds %"class.rocksdb::BlockBasedTable", ptr %this1, i32 0, i32 1
  %0 = load ptr, ptr %rep_, align 8
  %fragmented_range_dels = getelementptr inbounds %"struct.rocksdb::BlockBasedTable::Rep", ptr %0, i32 0, i32 22
  %call = call noundef zeroext i1 @_ZSteqIN7rocksdb28FragmentedRangeTombstoneListEEbRKSt10shared_ptrIT_EDn(ptr noundef nonnull align 8 dereferenceable(16) %fragmented_range_dels, ptr null) #3
  br i1 %call, label %if.then, label %if.end

if.then:                                          ; preds = %entry
  store ptr null, ptr %retval, align 8
  br label %return

if.end:                                           ; preds = %entry
  store i64 72057594037927935, ptr %snapshot, align 8
  %1 = load ptr, ptr %read_options.addr, align 8
  %snapshot2 = getelementptr inbounds %"struct.rocksdb::ReadOptions", ptr %1, i32 0, i32 0
  %2 = load ptr, ptr %snapshot2, align 8
  %cmp = icmp ne ptr %2, null
  br i1 %cmp, label %if.then3, label %if.end6

if.then3:                                         ; preds = %if.end
  %3 = load ptr, ptr %read_options.addr, align 8
  %snapshot4 = getelementptr inbounds %"struct.rocksdb::ReadOptions", ptr %3, i32 0, i32 0
  %4 = load ptr, ptr %snapshot4, align 8
  %vtable = load ptr, ptr %4, align 8
  %vfn = getelementptr inbounds ptr, ptr %vtable, i64 0
  %5 = load ptr, ptr %vfn, align 8
  %call5 = call noundef i64 %5(ptr noundef nonnull align 8 dereferenceable(8) %4)
  store i64 %call5, ptr %snapshot, align 8
  br label %if.end6

if.end6:                                          ; preds = %if.then3, %if.end
  %call7 = call noalias noundef nonnull ptr @_Znwm(i64 noundef 200) #19
  %rep_8 = getelementptr inbounds %"class.rocksdb::BlockBasedTable", ptr %this1, i32 0, i32 1
  %6 = load ptr, ptr %rep_8, align 8
  %fragmented_range_dels9 = getelementptr inbounds %"struct.rocksdb::BlockBasedTable::Rep", ptr %6, i32 0, i32 22
  %rep_10 = getelementptr inbounds %"class.rocksdb::BlockBasedTable", ptr %this1, i32 0, i32 1
  %7 = load ptr, ptr %rep_10, align 8
  %internal_comparator = getelementptr inbounds %"struct.rocksdb::BlockBasedTable::Rep", ptr %7, i32 0, i32 4
  %8 = load ptr, ptr %internal_comparator, align 8
  %9 = load i64, ptr %snapshot, align 8
  %10 = load ptr, ptr %read_options.addr, align 8
  %timestamp = getelementptr inbounds %"struct.rocksdb::ReadOptions", ptr %10, i32 0, i32 1
  %11 = load ptr, ptr %timestamp, align 8
  invoke void @_ZN7rocksdb32FragmentedRangeTombstoneIteratorC1ERKSt10shared_ptrINS_28FragmentedRangeTombstoneListEERKNS_21InternalKeyComparatorEmPKNS_5SliceEm(ptr noundef nonnull align 8 dereferenceable(200) %call7, ptr noundef nonnull align 8 dereferenceable(16) %fragmented_range_dels9, ptr noundef nonnull align 8 dereferenceable(16) %8, i64 noundef %9, ptr noundef %11, i64 noundef 0)
          to label %invoke.cont unwind label %lpad

invoke.cont:                                      ; preds = %if.end6
  store ptr %call7, ptr %retval, align 8
  br label %return

lpad:                                             ; preds = %if.end6
  %12 = landingpad { ptr, i32 }
          cleanup
  %13 = extractvalue { ptr, i32 } %12, 0
  store ptr %13, ptr %exn.slot, align 8
  %14 = extractvalue { ptr, i32 } %12, 1
  store i32 %14, ptr %ehselector.slot, align 4
  call void @_ZdlPv(ptr noundef %call7) #20
  br label %eh.resume

return:                                           ; preds = %invoke.cont, %if.then
  %15 = load ptr, ptr %retval, align 8
  ret ptr %15

eh.resume:                                        ; preds = %lpad
  %exn = load ptr, ptr %exn.slot, align 8
  %sel = load i32, ptr %ehselector.slot, align 4
  %lpad.val = insertvalue { ptr, i32 } poison, ptr %exn, 0
  %lpad.val11 = insertvalue { ptr, i32 } %lpad.val, i32 %sel, 1
  resume { ptr, i32 } %lpad.val11
}