; Function Attrs: mustprogress uwtable
define noundef ptr @_ZN7rocksdb15BlockBasedTable25NewRangeTombstoneIteratorERKNS_11ReadOptionsE(ptr nocapture noundef nonnull readonly align 8 dereferenceable(24) %this, ptr nocapture noundef nonnull readonly align 8 dereferenceable(154) %read_options) unnamed_addr #3 align 2 personality ptr @__gxx_personality_v0 {
entry:
  %rep_ = getelementptr inbounds i8, ptr %this, i64 8
  %0 = load ptr, ptr %rep_, align 8
  %fragmented_range_dels = getelementptr inbounds i8, ptr %0, i64 536
  %1 = load ptr, ptr %fragmented_range_dels, align 8
  %cmp.i.not.i = icmp eq ptr %1, null
  br i1 %cmp.i.not.i, label %return, label %if.end

if.end:                                           ; preds = %entry
  %2 = load ptr, ptr %read_options, align 8
  %cmp.not = icmp eq ptr %2, null
  br i1 %cmp.not, label %if.end6, label %if.then3

if.then3:                                         ; preds = %if.end
  %vtable = load ptr, ptr %2, align 8
  %3 = load ptr, ptr %vtable, align 8
  %call5 = tail call noundef i64 %3(ptr noundef nonnull align 8 dereferenceable(8) %2)
  %.pre = load ptr, ptr %rep_, align 8
  br label %if.end6

if.end6:                                          ; preds = %if.then3, %if.end
  %4 = phi ptr [ %.pre, %if.then3 ], [ %0, %if.end ]
  %snapshot.0 = phi i64 [ %call5, %if.then3 ], [ 72057594037927935, %if.end ]
  %call7 = tail call noalias noundef nonnull dereferenceable(200) ptr @_Znwm(i64 noundef 200) #32
  %fragmented_range_dels9 = getelementptr inbounds i8, ptr %4, i64 536
  %internal_comparator = getelementptr inbounds i8, ptr %4, i64 272
  %5 = load ptr, ptr %internal_comparator, align 8
  %timestamp = getelementptr inbounds i8, ptr %read_options, i64 8
  %6 = load ptr, ptr %timestamp, align 8
  invoke void @_ZN7rocksdb32FragmentedRangeTombstoneIteratorC1ERKSt10shared_ptrINS_28FragmentedRangeTombstoneListEERKNS_21InternalKeyComparatorEmPKNS_5SliceEm(ptr noundef nonnull align 8 dereferenceable(200) %call7, ptr noundef nonnull align 8 dereferenceable(16) %fragmented_range_dels9, ptr noundef nonnull align 8 dereferenceable(16) %5, i64 noundef %snapshot.0, ptr noundef %6, i64 noundef 0)
          to label %return unwind label %lpad

lpad:                                             ; preds = %if.end6
  %7 = landingpad { ptr, i32 }
          cleanup
  tail call void @_ZdlPv(ptr noundef nonnull %call7) #30
  resume { ptr, i32 } %7

return:                                           ; preds = %if.end6, %entry
  %retval.0 = phi ptr [ null, %entry ], [ %call7, %if.end6 ]
  ret ptr %retval.0
}